; ModuleID = 'source-C-CXX/27/186.c'
source_filename = "source-C-CXX/27/186.c"
target datalayout = "e-m:e-p270:32:32-p271:32:32-p272:64:64-i64:64-f80:128-n8:16:32:64-S128"
target triple = "x86_64-pc-linux-gnu"

@.str = private unnamed_addr constant [3 x i8] c"%d\00", align 1
@.str.1 = private unnamed_addr constant [4 x i8] c",%d\00", align 1

; Function Attrs: nounwind sspstrong uwtable
define dso_local void @main() local_unnamed_addr #0 {
  %1 = alloca [5000 x i8], align 16
  %2 = getelementptr inbounds [5000 x i8], [5000 x i8]* %1, i64 0, i64 0
  call void @llvm.lifetime.start.p0i8(i64 5000, i8* nonnull %2) #4
  %3 = call i32 (i8*, ...) bitcast (i32 (...)* @gets to i32 (i8*, ...)*)(i8* nonnull %2) #4
  br label %4

4:                                                ; preds = %16, %0
  %5 = phi i64 [ %19, %16 ], [ 0, %0 ]
  %6 = phi i32 [ %17, %16 ], [ 0, %0 ]
  %7 = phi i32 [ %20, %16 ], [ 0, %0 ]
  %8 = getelementptr inbounds [5000 x i8], [5000 x i8]* %1, i64 0, i64 %5
  %9 = load i8, i8* %8, align 1, !tbaa !5
  switch i8 %9, label %16 [
    i8 0, label %21
    i8 32, label %10
  ]

10:                                               ; preds = %4
  %11 = icmp sgt i32 %7, 0
  br i1 %11, label %12, label %16

12:                                               ; preds = %10
  %13 = icmp eq i32 %6, 0
  %14 = select i1 %13, i8* getelementptr inbounds ([3 x i8], [3 x i8]* @.str, i64 0, i64 0), i8* getelementptr inbounds ([4 x i8], [4 x i8]* @.str.1, i64 0, i64 0)
  %15 = call i32 (i8*, ...) @printf(i8* nonnull dereferenceable(1) %14, i32 %7)
  br label %16

16:                                               ; preds = %12, %10, %4
  %17 = phi i32 [ %6, %4 ], [ %6, %10 ], [ 1, %12 ]
  %18 = phi i32 [ %7, %4 ], [ -1, %10 ], [ -1, %12 ]
  %19 = add nuw i64 %5, 1
  %20 = add nsw i32 %18, 1
  br label %4, !llvm.loop !8

21:                                               ; preds = %4
  %22 = icmp eq i32 %6, 0
  %23 = select i1 %22, i8* getelementptr inbounds ([3 x i8], [3 x i8]* @.str, i64 0, i64 0), i8* getelementptr inbounds ([4 x i8], [4 x i8]* @.str.1, i64 0, i64 0)
  %24 = call i32 (i8*, ...) @printf(i8* nonnull dereferenceable(1) %23, i32 %7)
  call void @llvm.lifetime.end.p0i8(i64 5000, i8* nonnull %2) #4
  ret void
}

; Function Attrs: argmemonly mustprogress nofree nosync nounwind willreturn
declare void @llvm.lifetime.start.p0i8(i64 immarg, i8* nocapture) #1

declare i32 @gets(...) local_unnamed_addr #2

; Function Attrs: nofree nounwind
declare noundef i32 @printf(i8* nocapture noundef readonly, ...) local_unnamed_addr #3

; Function Attrs: argmemonly mustprogress nofree nosync nounwind willreturn
declare void @llvm.lifetime.end.p0i8(i64 immarg, i8* nocapture) #1


!llvm.module.flags = !{!0, !1, !2, !3}
!llvm.ident = !{!4}

!0 = !{i32 1, !"wchar_size", i32 4}
!1 = !{i32 7, !"PIC Level", i32 2}
!2 = !{i32 7, !"PIE Level", i32 2}
!3 = !{i32 7, !"uwtable", i32 1}
!4 = !{!"clang version 13.0.0"}
!5 = !{!6, !6, i64 0}
!6 = !{!"omnipotent char", !7, i64 0}
!7 = !{!"Simple C/C++ TBAA"}
!8 = distinct !{!8, !9}
!9 = !{!"llvm.loop.mustprogress"}
